target datalayout = "e-m:e-p270:32:32-p271:32:32-p272:64:64-i64:64-i128:128-f80:128-n8:16:32:64-S128"
target triple = "x86_64-pc-linux-gnu"

%struct.expert_field = type { i32, i32 }
%struct._packet_info = type { ptr, ptr, i32, i32, %struct.nstime_t, %struct.nstime_t, %struct.nstime_t, i32, ptr, ptr, ptr, ptr, %struct._address, %struct._address, %struct._address, %struct._address, %struct._address, %struct._address, i32, ptr, i32, %struct.anon, i32, i32, i32, i32, ptr, i32, ptr, ptr, i16, i16, i32, i32, i16, i32, i32, ptr, ptr, ptr, i8, i8, i16, i16, i16, i32, i16, i16, ptr, ptr, ptr, ptr, ptr, i32 }
%struct.nstime_t = type { i64, i32 }
%struct._address = type { i32, i32, ptr, ptr }
%struct.anon = type { i8, [3 x i8] }

@hf_gdsdb_prepare_transaction = internal global i32 0, align 4
@hf_gdsdb_prepare_statement = internal global i32 0, align 4
@hf_gdsdb_prepare_dialect = internal global i32 0, align 4
@hf_gdsdb_prepare_querystr = internal global i32 0, align 4
@hf_gdsdb_prepare_bufferlength = internal global i32 0, align 4
@ei_gdsdb_invalid_length = internal global %struct.expert_field zeroinitializer, align 4
@.str.280 = private unnamed_addr constant [5 x i8] c": %s\00", align 1
@.str.281 = private unnamed_addr constant [19 x i8] c"Invalid length: %d\00", align 1

; Function Attrs: nounwind uwtable
define internal i32 @add_uint_string(ptr noundef %0, i32 noundef %1, ptr noundef %2, i32 noundef %3) #0 {
  %5 = alloca i32, align 4
  %6 = alloca ptr, align 8
  %7 = alloca i32, align 4
  %8 = alloca ptr, align 8
  %9 = alloca i32, align 4
  %10 = alloca ptr, align 8
  %11 = alloca i32, align 4
  %12 = alloca i32, align 4
  store ptr %0, ptr %6, align 8
  store i32 %1, ptr %7, align 4
  store ptr %2, ptr %8, align 8
  store i32 %3, ptr %9, align 4
  %13 = load ptr, ptr %6, align 8
  %14 = load i32, ptr %7, align 4
  %15 = load ptr, ptr %8, align 8
  %16 = load i32, ptr %9, align 4
  %17 = call ptr @proto_tree_add_item(ptr noundef %13, i32 noundef %14, ptr noundef %15, i32 noundef %16, i32 noundef 4, i32 noundef 0)
  store ptr %17, ptr %10, align 8
  %18 = load ptr, ptr %8, align 8
  %19 = load i32, ptr %9, align 4
  %20 = call i32 @tvb_get_ntohl(ptr noundef %18, i32 noundef %19)
  %21 = call i32 @dword_align(i32 noundef %20)
  %22 = add i32 %21, 4
  store i32 %22, ptr %11, align 4
  %23 = load ptr, ptr %10, align 8
  %24 = load i32, ptr %11, align 4
  call void @proto_item_set_len(ptr noundef %23, i32 noundef %24)
  %25 = load i32, ptr %9, align 4
  %26 = load i32, ptr %11, align 4
  %27 = add i32 %25, %26
  store i32 %27, ptr %12, align 4
  %28 = load i32, ptr %11, align 4
  %29 = icmp slt i32 %28, 4
  br i1 %29, label %34, label %30

30:                                               ; preds = %4
  %31 = load i32, ptr %12, align 4
  %32 = load i32, ptr %9, align 4
  %33 = icmp slt i32 %31, %32
  br i1 %33, label %34, label %40

34:                                               ; preds = %30, %4
  %35 = load ptr, ptr %10, align 8
  %36 = load i32, ptr %11, align 4
  %37 = call ptr (ptr, ptr, ptr, ptr, ...) @expert_add_info_format(ptr noundef null, ptr noundef %35, ptr noundef @ei_gdsdb_invalid_length, ptr noundef @.str.281, i32 noundef %36)
  %38 = load ptr, ptr %8, align 8
  %39 = call i32 @tvb_reported_length(ptr noundef %38)
  store i32 %39, ptr %5, align 4
  br label %42

40:                                               ; preds = %30
  %41 = load i32, ptr %12, align 4
  store i32 %41, ptr %5, align 4
  br label %42

42:                                               ; preds = %40, %34
  %43 = load i32, ptr %5, align 4
  ret i32 %43
}

; Function Attrs: nounwind uwtable
define internal i32 @dword_align(i32 noundef %0) #0 {
  %2 = alloca i32, align 4
  store i32 %0, ptr %2, align 4
  %3 = load i32, ptr %2, align 4
  %4 = load i32, ptr %2, align 4
  %5 = and i32 %4, 3
  %6 = sub i32 4, %5
  %7 = add i32 %3, %6
  ret i32 %7
}

; Function Attrs: nounwind uwtable
define internal i32 @gdsdb_prepare(ptr noundef %0, ptr noundef %1, ptr noundef %2, i32 noundef %3) #0 {
  %5 = alloca i32, align 4
  %6 = alloca ptr, align 8
  %7 = alloca ptr, align 8
  %8 = alloca ptr, align 8
  %9 = alloca i32, align 4
  %10 = alloca i32, align 4
  %11 = alloca i32, align 4
  store ptr %0, ptr %6, align 8
  store ptr %1, ptr %7, align 8
  store ptr %2, ptr %8, align 8
  store i32 %3, ptr %9, align 4
  store i32 20, ptr %10, align 4
  %12 = load ptr, ptr %6, align 8
  %13 = load i32, ptr %9, align 4
  %14 = call i32 @tvb_reported_length_remaining(ptr noundef %12, i32 noundef %13)
  store i32 %14, ptr %11, align 4
  %15 = load i32, ptr %11, align 4
  %16 = load i32, ptr %10, align 4
  %17 = icmp slt i32 %15, %16
  br i1 %17, label %18, label %19

18:                                               ; preds = %4
  store i32 -1, ptr %5, align 4
  br label %79

19:                                               ; preds = %4
  %20 = load ptr, ptr %6, align 8
  %21 = load i32, ptr %9, align 4
  %22 = add i32 %21, 12
  %23 = call i32 @tvb_get_ntohl(ptr noundef %20, i32 noundef %22)
  %24 = call i32 @dword_align(i32 noundef %23)
  %25 = load i32, ptr %10, align 4
  %26 = add i32 %25, %24
  store i32 %26, ptr %10, align 4
  %27 = load i32, ptr %11, align 4
  %28 = load i32, ptr %10, align 4
  %29 = icmp slt i32 %27, %28
  br i1 %29, label %30, label %31

30:                                               ; preds = %19
  store i32 -1, ptr %5, align 4
  br label %79

31:                                               ; preds = %19
  %32 = load ptr, ptr %8, align 8
  %33 = load i32, ptr @hf_gdsdb_prepare_transaction, align 4
  %34 = load ptr, ptr %6, align 8
  %35 = load i32, ptr %9, align 4
  %36 = call ptr @proto_tree_add_item(ptr noundef %32, i32 noundef %33, ptr noundef %34, i32 noundef %35, i32 noundef 4, i32 noundef 0)
  %37 = load i32, ptr %9, align 4
  %38 = add i32 %37, 4
  store i32 %38, ptr %9, align 4
  %39 = load ptr, ptr %8, align 8
  %40 = load i32, ptr @hf_gdsdb_prepare_statement, align 4
  %41 = load ptr, ptr %6, align 8
  %42 = load i32, ptr %9, align 4
  %43 = call ptr @proto_tree_add_item(ptr noundef %39, i32 noundef %40, ptr noundef %41, i32 noundef %42, i32 noundef 4, i32 noundef 0)
  %44 = load i32, ptr %9, align 4
  %45 = add i32 %44, 4
  store i32 %45, ptr %9, align 4
  %46 = load ptr, ptr %8, align 8
  %47 = load i32, ptr @hf_gdsdb_prepare_dialect, align 4
  %48 = load ptr, ptr %6, align 8
  %49 = load i32, ptr %9, align 4
  %50 = call ptr @proto_tree_add_item(ptr noundef %46, i32 noundef %47, ptr noundef %48, i32 noundef %49, i32 noundef 4, i32 noundef 0)
  %51 = load i32, ptr %9, align 4
  %52 = add i32 %51, 4
  store i32 %52, ptr %9, align 4
  %53 = load ptr, ptr %7, align 8
  %54 = getelementptr inbounds %struct._packet_info, ptr %53, i32 0, i32 1
  %55 = load ptr, ptr %54, align 8
  %56 = load ptr, ptr %7, align 8
  %57 = getelementptr inbounds %struct._packet_info, ptr %56, i32 0, i32 50
  %58 = load ptr, ptr %57, align 8
  %59 = load ptr, ptr %6, align 8
  %60 = load i32, ptr %9, align 4
  %61 = add i32 %60, 4
  %62 = load ptr, ptr %6, align 8
  %63 = load i32, ptr %9, align 4
  %64 = call i32 @tvb_get_ntohl(ptr noundef %62, i32 noundef %63)
  %65 = call ptr @tvb_format_text(ptr noundef %58, ptr noundef %59, i32 noundef %61, i32 noundef %64)
  call void (ptr, i32, ptr, ...) @col_append_fstr(ptr noundef %55, i32 noundef 25, ptr noundef @.str.280, ptr noundef %65)
  %66 = load ptr, ptr %8, align 8
  %67 = load i32, ptr @hf_gdsdb_prepare_querystr, align 4
  %68 = load ptr, ptr %6, align 8
  %69 = load i32, ptr %9, align 4
  %70 = call i32 @add_uint_string(ptr noundef %66, i32 noundef %67, ptr noundef %68, i32 noundef %69)
  store i32 %70, ptr %9, align 4
  %71 = load ptr, ptr %8, align 8
  %72 = load i32, ptr @hf_gdsdb_prepare_bufferlength, align 4
  %73 = load ptr, ptr %6, align 8
  %74 = load i32, ptr %9, align 4
  %75 = call ptr @proto_tree_add_item(ptr noundef %71, i32 noundef %72, ptr noundef %73, i32 noundef %74, i32 noundef 4, i32 noundef 0)
  %76 = load i32, ptr %9, align 4
  %77 = add i32 %76, 4
  store i32 %77, ptr %9, align 4
  %78 = load i32, ptr %9, align 4
  store i32 %78, ptr %5, align 4
  br label %79

79:                                               ; preds = %31, %30, %18
  %80 = load i32, ptr %5, align 4
  ret i32 %80
}