; Function Attrs: nounwind uwtable
define internal noundef i32 @gdsdb_prepare(ptr noundef %0, ptr noundef readonly captures(none) %1, ptr noundef %2, i32 noundef %3) #0 {
  %5 = tail call i32 @tvb_reported_length_remaining(ptr noundef %0, i32 noundef %3) #3
  %6 = icmp slt i32 %5, 20
  br i1 %6, label %42, label %7

7:                                                ; preds = %4
  %8 = add i32 %3, 12
  %9 = tail call i32 @tvb_get_ntohl(ptr noundef %0, i32 noundef %8) #3
  %reass.sub.i = and i32 %9, -4
  %10 = add i32 %reass.sub.i, 24
  %11 = icmp slt i32 %5, %10
  br i1 %11, label %42, label %12

12:                                               ; preds = %7
  %13 = load i32, ptr @hf_gdsdb_prepare_transaction, align 4
  %14 = tail call ptr @proto_tree_add_item(ptr noundef %2, i32 noundef %13, ptr noundef %0, i32 noundef %3, i32 noundef 4, i32 noundef 0) #3
  %15 = add i32 %3, 4
  %16 = load i32, ptr @hf_gdsdb_prepare_statement, align 4
  %17 = tail call ptr @proto_tree_add_item(ptr noundef %2, i32 noundef %16, ptr noundef %0, i32 noundef %15, i32 noundef 4, i32 noundef 0) #3
  %18 = add i32 %3, 8
  %19 = load i32, ptr @hf_gdsdb_prepare_dialect, align 4
  %20 = tail call ptr @proto_tree_add_item(ptr noundef %2, i32 noundef %19, ptr noundef %0, i32 noundef %18, i32 noundef 4, i32 noundef 0) #3
  %21 = getelementptr inbounds nuw i8, ptr %1, i64 8
  %22 = load ptr, ptr %21, align 8
  %23 = getelementptr inbounds nuw i8, ptr %1, i64 408
  %24 = load ptr, ptr %23, align 8
  %25 = add i32 %3, 16
  %26 = tail call i32 @tvb_get_ntohl(ptr noundef %0, i32 noundef %8) #3
  %27 = tail call ptr @tvb_format_text(ptr noundef %24, ptr noundef %0, i32 noundef %25, i32 noundef %26) #3
  tail call void (ptr, i32, ptr, ...) @col_append_fstr(ptr noundef %22, i32 noundef 25, ptr noundef nonnull @.str.280, ptr noundef %27) #3
  %28 = load i32, ptr @hf_gdsdb_prepare_querystr, align 4
  %29 = tail call ptr @proto_tree_add_item(ptr noundef %2, i32 noundef %28, ptr noundef %0, i32 noundef %8, i32 noundef 4, i32 noundef 0) #3
  %30 = tail call i32 @tvb_get_ntohl(ptr noundef %0, i32 noundef %8) #3
  %reass.sub.i.i = and i32 %30, -4
  %31 = add i32 %reass.sub.i.i, 8
  tail call void @proto_item_set_len(ptr noundef %29, i32 noundef %31) #3
  %32 = add i32 %31, %8
  %33 = add i32 %30, -2147483640
  %34 = icmp ult i32 %33, -2147483644
  %35 = icmp slt i32 %32, %8
  %or.cond.i = or i1 %34, %35
  br i1 %or.cond.i, label %36, label %add_uint_string.exit

36:                                               ; preds = %12
  %37 = tail call ptr (ptr, ptr, ptr, ptr, ...) @expert_add_info_format(ptr noundef null, ptr noundef %29, ptr noundef nonnull @ei_gdsdb_invalid_length, ptr noundef nonnull @.str.281, i32 noundef %31) #3
  %38 = tail call i32 @tvb_reported_length(ptr noundef %0) #3
  br label %add_uint_string.exit

add_uint_string.exit:                             ; preds = %12, %36
  %.0.i = phi i32 [ %38, %36 ], [ %32, %12 ]
  %39 = load i32, ptr @hf_gdsdb_prepare_bufferlength, align 4
  %40 = tail call ptr @proto_tree_add_item(ptr noundef %2, i32 noundef %39, ptr noundef %0, i32 noundef %.0.i, i32 noundef 4, i32 noundef 0) #3
  %41 = add i32 %.0.i, 4
  br label %42

42:                                               ; preds = %7, %4, %add_uint_string.exit
  %.0 = phi i32 [ %41, %add_uint_string.exit ], [ -1, %4 ], [ -1, %7 ]
  ret i32 %.0
}